target datalayout = "e-m:e-p270:32:32-p271:32:32-p272:64:64-i64:64-i128:128-f80:128-n8:16:32:64-S128"
target triple = "x86_64-pc-linux-gnu"

%struct.QemuMutex = type { %union.pthread_mutex_t, i8 }
%union.pthread_mutex_t = type { %struct.__pthread_mutex_s }
%struct.__pthread_mutex_s = type { i32, i32, i32, i32, i32, i16, i16, %struct.__pthread_internal_list }
%struct.__pthread_internal_list = type { ptr, ptr }
%struct.JobTxn = type { i8, %struct.anon, i32 }
%struct.anon = type { ptr }
%struct.Job = type { ptr, ptr, ptr, i8, i8, ptr, ptr, %struct.ProgressMeter, ptr, i32, i32, %struct.QEMUTimer, i32, i8, i8, i8, i8, i8, i8, i32, ptr, %struct.NotifierList, %struct.NotifierList, %struct.NotifierList, %struct.NotifierList, %struct.NotifierList, %struct.anon.1, ptr, %struct.anon.2 }
%struct.ProgressMeter = type { i64, i64, %struct.QemuMutex }
%struct.QEMUTimer = type { i64, ptr, ptr, ptr, ptr, i32, i32 }
%struct.NotifierList = type { %struct.anon.0 }
%struct.anon.0 = type { ptr }
%struct.anon.1 = type { ptr, ptr }
%struct.anon.2 = type { ptr, ptr }

@.str = private unnamed_addr constant [14 x i8] c"../qemu/job.c\00", align 1
@__func__.job_is_completed_locked = private unnamed_addr constant [24 x i8] c"job_is_completed_locked\00", align 1
@.str.50 = private unnamed_addr constant [39 x i8] c"job_cancel_requested_locked(other_job)\00", align 1
@__PRETTY_FUNCTION__.job_completed_txn_abort_locked = private unnamed_addr constant [43 x i8] c"void job_completed_txn_abort_locked(Job *)\00", align 1

; Function Attrs: nounwind sspstrong uwtable
define dso_local void @job_txn_unref_locked(ptr noundef %0) #0 {
  %2 = alloca ptr, align 8
  store ptr %0, ptr %2, align 8
  %3 = load ptr, ptr %2, align 8
  %4 = icmp ne ptr %3, null
  br i1 %4, label %5, label %13

5:                                                ; preds = %1
  %6 = load ptr, ptr %2, align 8
  %7 = getelementptr inbounds nuw %struct.JobTxn, ptr %6, i32 0, i32 2
  %8 = load i32, ptr %7, align 8
  %9 = add i32 %8, -1
  store i32 %9, ptr %7, align 8
  %10 = icmp eq i32 %9, 0
  br i1 %10, label %11, label %13

11:                                               ; preds = %5
  %12 = load ptr, ptr %2, align 8
  call void @g_free(ptr noundef %12)
  br label %13

13:                                               ; preds = %11, %5, %1
  ret void
}

; Function Attrs: nounwind sspstrong uwtable
define internal zeroext i1 @job_cancel_requested_locked(ptr noundef %0) #0 {
  %2 = alloca ptr, align 8
  store ptr %0, ptr %2, align 8
  %3 = load ptr, ptr %2, align 8
  %4 = getelementptr inbounds nuw %struct.Job, ptr %3, i32 0, i32 16
  %5 = load i8, ptr %4, align 1, !range !7, !noundef !8
  %6 = trunc i8 %5 to i1
  ret i1 %6
}

; Function Attrs: nounwind sspstrong uwtable
define dso_local zeroext i1 @job_is_completed_locked(ptr noundef %0) #0 {
  %2 = alloca i1, align 1
  %3 = alloca ptr, align 8
  store ptr %0, ptr %3, align 8
  %4 = load ptr, ptr %3, align 8
  %5 = getelementptr inbounds nuw %struct.Job, ptr %4, i32 0, i32 10
  %6 = load i32, ptr %5, align 4
  switch i32 %6, label %9 [
    i32 0, label %7
    i32 1, label %7
    i32 2, label %7
    i32 3, label %7
    i32 4, label %7
    i32 5, label %7
    i32 6, label %8
    i32 7, label %8
    i32 8, label %8
    i32 9, label %8
    i32 10, label %8
  ]

7:                                                ; preds = %1, %1, %1, %1, %1, %1
  store i1 false, ptr %2, align 1
  br label %13

8:                                                ; preds = %1, %1, %1, %1, %1
  store i1 true, ptr %2, align 1
  br label %13

9:                                                ; preds = %1
  br label %10

10:                                               ; preds = %9
  call void @g_assertion_message_expr(ptr noundef null, ptr noundef @.str, i32 noundef 317, ptr noundef @__func__.job_is_completed_locked, ptr noundef null) #17
  unreachable

11:                                               ; No predecessors!
  br label %12

12:                                               ; preds = %11
  store i1 false, ptr %2, align 1
  br label %13

13:                                               ; preds = %12, %8, %7
  %14 = load i1, ptr %2, align 1
  ret i1 %14
}

; Function Attrs: nounwind sspstrong uwtable
define dso_local void @job_ref_locked(ptr noundef %0) #0 {
  %2 = alloca ptr, align 8
  store ptr %0, ptr %2, align 8
  %3 = load ptr, ptr %2, align 8
  %4 = getelementptr inbounds nuw %struct.Job, ptr %3, i32 0, i32 9
  %5 = load i32, ptr %4, align 8
  %6 = add i32 %5, 1
  store i32 %6, ptr %4, align 8
  ret void
}

; Function Attrs: nounwind sspstrong uwtable
define internal void @job_txn_ref_locked(ptr noundef %0) #0 {
  %2 = alloca ptr, align 8
  store ptr %0, ptr %2, align 8
  %3 = load ptr, ptr %2, align 8
  %4 = getelementptr inbounds nuw %struct.JobTxn, ptr %3, i32 0, i32 2
  %5 = load i32, ptr %4, align 8
  %6 = add i32 %5, 1
  store i32 %6, ptr %4, align 8
  ret void
}

; Function Attrs: nounwind sspstrong uwtable
define internal void @job_completed_txn_abort_locked(ptr noundef %0) #0 {
  %2 = alloca ptr, align 8
  %3 = alloca ptr, align 8
  %4 = alloca ptr, align 8
  %5 = alloca i32, align 4
  store ptr %0, ptr %2, align 8
  call void @llvm.lifetime.start.p0(i64 8, ptr %3) #16
  %6 = load ptr, ptr %2, align 8
  %7 = getelementptr inbounds nuw %struct.Job, ptr %6, i32 0, i32 27
  %8 = load ptr, ptr %7, align 8
  store ptr %8, ptr %3, align 8
  call void @llvm.lifetime.start.p0(i64 8, ptr %4) #16
  store ptr null, ptr %4, align 8, !annotation !5
  %9 = load ptr, ptr %3, align 8
  %10 = getelementptr inbounds nuw %struct.JobTxn, ptr %9, i32 0, i32 0
  %11 = load i8, ptr %10, align 8, !range !7, !noundef !8
  %12 = trunc i8 %11 to i1
  br i1 %12, label %13, label %14

13:                                               ; preds = %1
  store i32 1, ptr %5, align 4
  br label %67

14:                                               ; preds = %1
  %15 = load ptr, ptr %3, align 8
  %16 = getelementptr inbounds nuw %struct.JobTxn, ptr %15, i32 0, i32 0
  store i8 1, ptr %16, align 8
  %17 = load ptr, ptr %3, align 8
  call void @job_txn_ref_locked(ptr noundef %17)
  %18 = load ptr, ptr %2, align 8
  call void @job_ref_locked(ptr noundef %18)
  %19 = load ptr, ptr %3, align 8
  %20 = getelementptr inbounds nuw %struct.JobTxn, ptr %19, i32 0, i32 1
  %21 = getelementptr inbounds nuw %struct.anon, ptr %20, i32 0, i32 0
  %22 = load ptr, ptr %21, align 8
  store ptr %22, ptr %4, align 8
  br label %23

23:                                               ; preds = %33, %14
  %24 = load ptr, ptr %4, align 8
  %25 = icmp ne ptr %24, null
  br i1 %25, label %26, label %38

26:                                               ; preds = %23
  %27 = load ptr, ptr %4, align 8
  %28 = load ptr, ptr %2, align 8
  %29 = icmp ne ptr %27, %28
  br i1 %29, label %30, label %32

30:                                               ; preds = %26
  %31 = load ptr, ptr %4, align 8
  call void @job_cancel_async_locked(ptr noundef %31, i1 noundef zeroext true)
  br label %32

32:                                               ; preds = %30, %26
  br label %33

33:                                               ; preds = %32
  %34 = load ptr, ptr %4, align 8
  %35 = getelementptr inbounds nuw %struct.Job, ptr %34, i32 0, i32 28
  %36 = getelementptr inbounds nuw %struct.anon.2, ptr %35, i32 0, i32 0
  %37 = load ptr, ptr %36, align 8
  store ptr %37, ptr %4, align 8
  br label %23, !llvm.loop !15

38:                                               ; preds = %23
  br label %39

39:                                               ; preds = %61, %38
  %40 = load ptr, ptr %3, align 8
  %41 = getelementptr inbounds nuw %struct.JobTxn, ptr %40, i32 0, i32 1
  %42 = getelementptr inbounds nuw %struct.anon, ptr %41, i32 0, i32 0
  %43 = load ptr, ptr %42, align 8
  %44 = icmp eq ptr %43, null
  %45 = xor i1 %44, true
  br i1 %45, label %46, label %64

46:                                               ; preds = %39
  %47 = load ptr, ptr %3, align 8
  %48 = getelementptr inbounds nuw %struct.JobTxn, ptr %47, i32 0, i32 1
  %49 = getelementptr inbounds nuw %struct.anon, ptr %48, i32 0, i32 0
  %50 = load ptr, ptr %49, align 8
  store ptr %50, ptr %4, align 8
  %51 = load ptr, ptr %4, align 8
  %52 = call zeroext i1 @job_is_completed_locked(ptr noundef %51)
  br i1 %52, label %61, label %53

53:                                               ; preds = %46
  %54 = load ptr, ptr %4, align 8
  %55 = call zeroext i1 @job_cancel_requested_locked(ptr noundef %54)
  br i1 %55, label %56, label %57

56:                                               ; preds = %53
  br label %58

57:                                               ; preds = %53
  call void @__assert_fail(ptr noundef @.str.50, ptr noundef @.str, i32 noundef 955, ptr noundef @__PRETTY_FUNCTION__.job_completed_txn_abort_locked) #20
  unreachable

58:                                               ; preds = %56
  %59 = load ptr, ptr %4, align 8
  %60 = call i32 @job_finish_sync_locked(ptr noundef %59, ptr noundef null, ptr noundef null)
  br label %61

61:                                               ; preds = %58, %46
  %62 = load ptr, ptr %4, align 8
  %63 = call i32 @job_finalize_single_locked(ptr noundef %62)
  br label %39, !llvm.loop !16

64:                                               ; preds = %39
  %65 = load ptr, ptr %2, align 8
  call void @job_unref_locked(ptr noundef %65)
  %66 = load ptr, ptr %3, align 8
  call void @job_txn_unref_locked(ptr noundef %66)
  store i32 0, ptr %5, align 4
  br label %67

67:                                               ; preds = %64, %13
  call void @llvm.lifetime.end.p0(i64 8, ptr %4) #16
  call void @llvm.lifetime.end.p0(i64 8, ptr %3) #16
  %68 = load i32, ptr %5, align 4
  switch i32 %68, label %70 [
    i32 0, label %69
    i32 1, label %69
  ]

69:                                               ; preds = %67, %67
  ret void

70:                                               ; preds = %67
  unreachable
}