; Function Attrs: nounwind sspstrong uwtable
define internal fastcc void @job_completed_txn_abort_locked(ptr noundef %0) unnamed_addr #0 {
  %2 = getelementptr inbounds nuw i8, ptr %0, i64 256
  %3 = load ptr, ptr %2, align 8
  %4 = load i8, ptr %3, align 8, !range !4, !noundef !5
  %5 = trunc nuw i8 %4 to i1
  br i1 %5, label %job_txn_unref_locked.exit, label %6

6:                                                ; preds = %1
  store i8 1, ptr %3, align 8
  %7 = getelementptr inbounds nuw i8, ptr %3, i64 16
  %8 = load i32, ptr %7, align 8
  %9 = add i32 %8, 1
  store i32 %9, ptr %7, align 8
  %10 = getelementptr inbounds nuw i8, ptr %0, i64 120
  %11 = load i32, ptr %10, align 8
  %12 = add i32 %11, 1
  store i32 %12, ptr %10, align 8
  %13 = getelementptr inbounds nuw i8, ptr %3, i64 8
  %.022 = load ptr, ptr %13, align 8
  %.not23 = icmp eq ptr %.022, null
  br i1 %.not23, label %._crit_edge, label %.lr.ph

.preheader:                                       ; preds = %15
  %.pre = load ptr, ptr %13, align 8
  %.not1925 = icmp eq ptr %.pre, null
  br i1 %.not1925, label %._crit_edge, label %.lr.ph26

.lr.ph:                                           ; preds = %6, %15
  %.024 = phi ptr [ %.0, %15 ], [ %.022, %6 ]
  %.not20 = icmp eq ptr %.024, %0
  br i1 %.not20, label %15, label %14

14:                                               ; preds = %.lr.ph
  tail call fastcc void @job_cancel_async_locked(ptr noundef nonnull %.024, i1 noundef zeroext true)
  br label %15

15:                                               ; preds = %.lr.ph, %14
  %16 = getelementptr inbounds nuw i8, ptr %.024, i64 264
  %.0 = load ptr, ptr %16, align 8
  %.not = icmp eq ptr %.0, null
  br i1 %.not, label %.preheader, label %.lr.ph, !llvm.loop !14

.lr.ph26:                                         ; preds = %.preheader, %job_is_completed_locked.exit.thread
  %17 = phi ptr [ %27, %job_is_completed_locked.exit.thread ], [ %.pre, %.preheader ]
  %18 = getelementptr inbounds nuw i8, ptr %17, i64 124
  %19 = load i32, ptr %18, align 4
  switch i32 %19, label %20 [
    i32 0, label %job_is_completed_locked.exit
    i32 1, label %job_is_completed_locked.exit
    i32 2, label %job_is_completed_locked.exit
    i32 3, label %job_is_completed_locked.exit
    i32 4, label %job_is_completed_locked.exit
    i32 5, label %job_is_completed_locked.exit
    i32 6, label %job_is_completed_locked.exit.thread
    i32 7, label %job_is_completed_locked.exit.thread
    i32 8, label %job_is_completed_locked.exit.thread
    i32 9, label %job_is_completed_locked.exit.thread
    i32 10, label %job_is_completed_locked.exit.thread
  ]

20:                                               ; preds = %.lr.ph26
  tail call void @g_assertion_message_expr(ptr noundef null, ptr noundef nonnull @.str, i32 noundef 317, ptr noundef nonnull @__func__.job_is_completed_locked, ptr noundef null) #17
  unreachable

job_is_completed_locked.exit:                     ; preds = %.lr.ph26, %.lr.ph26, %.lr.ph26, %.lr.ph26, %.lr.ph26, %.lr.ph26
  %21 = getelementptr i8, ptr %17, i64 183
  %.val = load i8, ptr %21, align 1, !range !4, !noundef !5
  %22 = trunc nuw i8 %.val to i1
  br i1 %22, label %24, label %23

23:                                               ; preds = %job_is_completed_locked.exit
  tail call void @__assert_fail(ptr noundef nonnull @.str.50, ptr noundef nonnull @.str, i32 noundef 955, ptr noundef nonnull @__PRETTY_FUNCTION__.job_completed_txn_abort_locked) #17
  unreachable

24:                                               ; preds = %job_is_completed_locked.exit
  %25 = tail call i32 @job_finish_sync_locked(ptr noundef nonnull %17, ptr noundef null, ptr noundef null)
  br label %job_is_completed_locked.exit.thread

job_is_completed_locked.exit.thread:              ; preds = %.lr.ph26, %.lr.ph26, %.lr.ph26, %.lr.ph26, %.lr.ph26, %24
  %26 = tail call fastcc i32 @job_finalize_single_locked(ptr noundef nonnull %17)
  %27 = load ptr, ptr %13, align 8
  %.not19 = icmp eq ptr %27, null
  br i1 %.not19, label %._crit_edge, label %.lr.ph26, !llvm.loop !15

._crit_edge:                                      ; preds = %job_is_completed_locked.exit.thread, %6, %.preheader
  tail call void @job_unref_locked(ptr noundef %0)
  %28 = load i32, ptr %7, align 8
  %29 = add i32 %28, -1
  store i32 %29, ptr %7, align 8
  %30 = icmp eq i32 %29, 0
  br i1 %30, label %31, label %job_txn_unref_locked.exit

31:                                               ; preds = %._crit_edge
  tail call void @g_free(ptr noundef nonnull %3) #15
  br label %job_txn_unref_locked.exit

job_txn_unref_locked.exit:                        ; preds = %31, %._crit_edge, %1
  ret void
}